; Function Attrs: null_pointer_is_valid sspstrong uwtable
define internal i32 @dissect_header_kid(ptr noundef %0, ptr noundef %1, ptr noundef %2, ptr readnone captures(none) %3) #0 {
  %5 = alloca i32, align 4
  call void @llvm.lifetime.start.p0(i64 4, ptr nonnull %5) #8
  store i32 0, ptr %5, align 4
  %6 = getelementptr inbounds nuw i8, ptr %1, i64 408
  %7 = load ptr, ptr %6, align 8
  %8 = call ptr @wscbor_chunk_read(ptr noundef %7, ptr noundef %0, ptr noundef nonnull %5)
  %9 = load ptr, ptr %6, align 8
  %10 = call ptr @wscbor_require_bstr(ptr noundef %9, ptr noundef %8)
  %11 = load i32, ptr @hf_hdr_kid, align 4
  %12 = call ptr @proto_tree_add_cbor_bstr(ptr noundef %2, i32 noundef %11, ptr noundef %1, ptr noundef %0, ptr noundef %8)
  %.not = icmp eq ptr %10, null
  br i1 %.not, label %proto_item_set_generated.exit, label %13

13:                                               ; preds = %4
  %14 = call zeroext i1 @tvb_utf_8_isprint(ptr noundef nonnull %10, i32 noundef 0, i32 noundef -1)
  br i1 %14, label %15, label %proto_item_set_generated.exit

15:                                               ; preds = %13
  %16 = load i32, ptr @ett_hdr_kid, align 4
  %17 = call ptr @proto_item_add_subtree(ptr noundef %12, i32 noundef %16)
  %18 = load i32, ptr @hf_hdr_kid_text, align 4
  %19 = call i32 @tvb_reported_length(ptr noundef nonnull %10)
  %20 = call ptr @proto_tree_add_item(ptr noundef %17, i32 noundef %18, ptr noundef nonnull %10, i32 noundef 0, i32 noundef %19, i32 noundef 2)
  %.not.i = icmp eq ptr %20, null
  br i1 %.not.i, label %proto_item_set_generated.exit, label %21

21:                                               ; preds = %15
  %22 = getelementptr inbounds nuw i8, ptr %20, i64 40
  %23 = load ptr, ptr %22, align 8
  %.not5.i = icmp eq ptr %23, null
  br i1 %.not5.i, label %proto_item_set_generated.exit, label %24

24:                                               ; preds = %21
  %25 = getelementptr inbounds nuw i8, ptr %23, i64 28
  %26 = load i32, ptr %25, align 4
  %27 = or i32 %26, 2
  store i32 %27, ptr %25, align 4
  br label %proto_item_set_generated.exit

proto_item_set_generated.exit:                    ; preds = %24, %21, %15, %13, %4
  %28 = load i32, ptr %5, align 4
  call void @llvm.lifetime.end.p0(i64 4, ptr nonnull %5) #8
  ret i32 %28
}